; generated by Component: ARM Compiler 5.06 update 4 (build 422) Tool: ArmCC [4d3604]
; commandline ArmCC [--list --split_sections --debug -c --asm --interleave -o.\objects\stm3210e_eval.o --asm_dir=.\Listings\ --list_dir=.\Listings\ --depend=.\objects\stm3210e_eval.d --cpu=Cortex-M3 --apcs=interwork -O0 --diag_suppress=9931 -I.\Libraries\CMSIS\CM3\CoreSupport -I.\Libraries\CMSIS\CM3\DeviceSupport\ST\STM32F10x -I.\Libraries\CMSIS\CM3\DeviceSupport\ST\STM32F10x\startup\arm -I.\Libraries\STM32F10x_StdPeriph_Driver\inc -I.\main -I.\FreeRTOS\include -I.\FreeRTOS\portable\RVDS\ARM_CM3 -I.\User -I.\User\include -I.\fatfs -I.\Utilities\STM32_EVAL -I.\Utilities\STM32_EVAL\Common -I.\Utilities\STM32_EVAL\STM3210E_EVAL -I.\RTE\_Target_1 -I"D:\program files (x86)\keil5\ARM\PACK\Keil\STM32F1xx_DFP\2.3.0\Device\Include" -I"D:\program files (x86)\keil5\ARM\CMSIS\Include" -D__UVISION_VERSION=523 -DSTM32F10X_HD -DSTM32F10X_HD -DUSE_STDPERIPH_DRIVER -DUSE_STM3210E_EVAL --omf_browse=.\objects\stm3210e_eval.crf Utilities\STM32_EVAL\STM3210E_EVAL\stm3210e_eval.c]
                          THUMB

                          AREA ||i.LM75_LowLevel_DeInit||, CODE, READONLY, ALIGN=2

                  LM75_LowLevel_DeInit PROC
;;;586      */
;;;587    void LM75_LowLevel_DeInit(void)
000000  b508              PUSH     {r3,lr}
;;;588    {
;;;589      GPIO_InitTypeDef  GPIO_InitStructure;
;;;590    
;;;591      /*!< Disable LM75_I2C */
;;;592      I2C_Cmd(LM75_I2C, DISABLE);
000002  2100              MOVS     r1,#0
000004  4811              LDR      r0,|L1.76|
000006  f7fffffe          BL       I2C_Cmd
;;;593      /*!< DeInitializes the LM75_I2C */
;;;594      I2C_DeInit(LM75_I2C);
00000a  4810              LDR      r0,|L1.76|
00000c  f7fffffe          BL       I2C_DeInit
;;;595      
;;;596      /*!< LM75_I2C Periph clock disable */
;;;597      RCC_APB1PeriphClockCmd(LM75_I2C_CLK, DISABLE);
000010  2100              MOVS     r1,#0
000012  f44f1000          MOV      r0,#0x200000
000016  f7fffffe          BL       RCC_APB1PeriphClockCmd
;;;598        
;;;599      /*!< Configure LM75_I2C pins: SCL */
;;;600      GPIO_InitStructure.GPIO_Pin = LM75_I2C_SCL_PIN;
00001a  2040              MOVS     r0,#0x40
00001c  f8ad0000          STRH     r0,[sp,#0]
;;;601      GPIO_InitStructure.GPIO_Mode = GPIO_Mode_IN_FLOATING;
000020  2004              MOVS     r0,#4
000022  f88d0003          STRB     r0,[sp,#3]
;;;602      GPIO_Init(LM75_I2C_SCL_GPIO_PORT, &GPIO_InitStructure);
000026  4669              MOV      r1,sp
000028  4809              LDR      r0,|L1.80|
00002a  f7fffffe          BL       GPIO_Init
;;;603    
;;;604      /*!< Configure LM75_I2C pins: SDA */
;;;605      GPIO_InitStructure.GPIO_Pin = LM75_I2C_SDA_PIN;
00002e  2080              MOVS     r0,#0x80
000030  f8ad0000          STRH     r0,[sp,#0]
;;;606      GPIO_Init(LM75_I2C_SDA_GPIO_PORT, &GPIO_InitStructure);
000034  4669              MOV      r1,sp
000036  4806              LDR      r0,|L1.80|
000038  f7fffffe          BL       GPIO_Init
;;;607    
;;;608      /*!< Configure LM75_I2C pin: SMBUS ALERT */
;;;609      GPIO_InitStructure.GPIO_Pin = LM75_I2C_SMBUSALERT_PIN;
00003c  2020              MOVS     r0,#0x20
00003e  f8ad0000          STRH     r0,[sp,#0]
;;;610      GPIO_Init(LM75_I2C_SMBUSALERT_GPIO_PORT, &GPIO_InitStructure);
000042  4669              MOV      r1,sp
000044  4802              LDR      r0,|L1.80|
000046  f7fffffe          BL       GPIO_Init
;;;611    }
00004a  bd08              POP      {r3,pc}
;;;612    
                          ENDP

                  |L1.76|
                          DCD      0x40005400
                  |L1.80|
                          DCD      0x40010c00

                          AREA ||i.LM75_LowLevel_Init||, CODE, READONLY, ALIGN=2

                  LM75_LowLevel_Init PROC
;;;617      */
;;;618    void LM75_LowLevel_Init(void)
000000  b508              PUSH     {r3,lr}
;;;619    {
;;;620      GPIO_InitTypeDef  GPIO_InitStructure;
;;;621    
;;;622      /*!< LM75_I2C Periph clock enable */
;;;623      RCC_APB1PeriphClockCmd(LM75_I2C_CLK, ENABLE);
000002  2101              MOVS     r1,#1
000004  0548              LSLS     r0,r1,#21
000006  f7fffffe          BL       RCC_APB1PeriphClockCmd
;;;624        
;;;625      /*!< LM75_I2C_SCL_GPIO_CLK, LM75_I2C_SDA_GPIO_CLK 
;;;626           and LM75_I2C_SMBUSALERT_GPIO_CLK Periph clock enable */
;;;627      RCC_APB2PeriphClockCmd(LM75_I2C_SCL_GPIO_CLK | LM75_I2C_SDA_GPIO_CLK |
00000a  2101              MOVS     r1,#1
00000c  2008              MOVS     r0,#8
00000e  f7fffffe          BL       RCC_APB2PeriphClockCmd
;;;628                             LM75_I2C_SMBUSALERT_GPIO_CLK, ENABLE);
;;;629      
;;;630      /*!< Configure LM75_I2C pins: SCL */
;;;631      GPIO_InitStructure.GPIO_Pin = LM75_I2C_SCL_PIN;
000012  2040              MOVS     r0,#0x40
000014  f8ad0000          STRH     r0,[sp,#0]
;;;632      GPIO_InitStructure.GPIO_Speed = GPIO_Speed_50MHz;
000018  2003              MOVS     r0,#3
00001a  f88d0002          STRB     r0,[sp,#2]
;;;633      GPIO_InitStructure.GPIO_Mode = GPIO_Mode_AF_OD;
00001e  201c              MOVS     r0,#0x1c
000020  f88d0003          STRB     r0,[sp,#3]
;;;634      GPIO_Init(LM75_I2C_SCL_GPIO_PORT, &GPIO_InitStructure);
000024  4669              MOV      r1,sp
000026  480a              LDR      r0,|L2.80|
000028  f7fffffe          BL       GPIO_Init
;;;635    
;;;636      /*!< Configure LM75_I2C pins: SDA */
;;;637      GPIO_InitStructure.GPIO_Pin = LM75_I2C_SDA_PIN;
00002c  2080              MOVS     r0,#0x80
00002e  f8ad0000          STRH     r0,[sp,#0]
;;;638      GPIO_Init(LM75_I2C_SDA_GPIO_PORT, &GPIO_InitStructure);
000032  4669              MOV      r1,sp
000034  4806              LDR      r0,|L2.80|
000036  f7fffffe          BL       GPIO_Init
;;;639    
;;;640      /*!< Configure LM75_I2C pin: SMBUS ALERT */
;;;641      GPIO_InitStructure.GPIO_Pin = LM75_I2C_SMBUSALERT_PIN;
00003a  2020              MOVS     r0,#0x20
00003c  f8ad0000          STRH     r0,[sp,#0]
;;;642      GPIO_InitStructure.GPIO_Mode = GPIO_Mode_IPU;
000040  2048              MOVS     r0,#0x48
000042  f88d0003          STRB     r0,[sp,#3]
;;;643      GPIO_Init(LM75_I2C_SMBUSALERT_GPIO_PORT, &GPIO_InitStructure); 
000046  4669              MOV      r1,sp
000048  4801              LDR      r0,|L2.80|
00004a  f7fffffe          BL       GPIO_Init
;;;644    }
00004e  bd08              POP      {r3,pc}
;;;645    
                          ENDP

                  |L2.80|
                          DCD      0x40010c00

                          AREA ||i.SD_DMAEndOfTransferStatus||, CODE, READONLY, ALIGN=2

                  SD_DMAEndOfTransferStatus PROC
;;;502      */
;;;503    uint32_t SD_DMAEndOfTransferStatus(void)
000000  b510              PUSH     {r4,lr}
;;;504    {
;;;505      return (uint32_t)DMA_GetFlagStatus(DMA2_FLAG_TC4);
000002  4802              LDR      r0,|L3.12|
000004  f7fffffe          BL       DMA_GetFlagStatus
;;;506    }
000008  bd10              POP      {r4,pc}
;;;507    
                          ENDP

00000a  0000              DCW      0x0000
                  |L3.12|
                          DCD      0x10002000

                          AREA ||i.SD_LowLevel_DMA_RxConfig||, CODE, READONLY, ALIGN=2

                  SD_LowLevel_DMA_RxConfig PROC
;;;470      */
;;;471    void SD_LowLevel_DMA_RxConfig(uint32_t *BufferDST, uint32_t BufferSize)
000000  b530              PUSH     {r4,r5,lr}
;;;472    {
000002  b08b              SUB      sp,sp,#0x2c
000004  4605              MOV      r5,r0
000006  460c              MOV      r4,r1
;;;473      DMA_InitTypeDef DMA_InitStructure;
;;;474    
;;;475      DMA_ClearFlag(DMA2_FLAG_TC4 | DMA2_FLAG_TE4 | DMA2_FLAG_HT4 | DMA2_FLAG_GL4);
000008  4813              LDR      r0,|L4.88|
00000a  f7fffffe          BL       DMA_ClearFlag
;;;476    
;;;477      /*!< DMA2 Channel4 disable */
;;;478      DMA_Cmd(DMA2_Channel4, DISABLE);
00000e  2100              MOVS     r1,#0
000010  4812              LDR      r0,|L4.92|
000012  f7fffffe          BL       DMA_Cmd
;;;479    
;;;480      /*!< DMA2 Channel4 Config */
;;;481      DMA_InitStructure.DMA_PeripheralBaseAddr = (uint32_t)SDIO_FIFO_ADDRESS;
000016  4812              LDR      r0,|L4.96|
000018  9000              STR      r0,[sp,#0]
;;;482      DMA_InitStructure.DMA_MemoryBaseAddr = (uint32_t)BufferDST;
00001a  9501              STR      r5,[sp,#4]
;;;483      DMA_InitStructure.DMA_DIR = DMA_DIR_PeripheralSRC;
00001c  2000              MOVS     r0,#0
00001e  9002              STR      r0,[sp,#8]
;;;484      DMA_InitStructure.DMA_BufferSize = BufferSize / 4;
000020  08a0              LSRS     r0,r4,#2
000022  9003              STR      r0,[sp,#0xc]
;;;485      DMA_InitStructure.DMA_PeripheralInc = DMA_PeripheralInc_Disable;
000024  2000              MOVS     r0,#0
000026  9004              STR      r0,[sp,#0x10]
;;;486      DMA_InitStructure.DMA_MemoryInc = DMA_MemoryInc_Enable;
000028  2080              MOVS     r0,#0x80
00002a  9005              STR      r0,[sp,#0x14]
;;;487      DMA_InitStructure.DMA_PeripheralDataSize = DMA_PeripheralDataSize_Word;
00002c  0080              LSLS     r0,r0,#2
00002e  9006              STR      r0,[sp,#0x18]
;;;488      DMA_InitStructure.DMA_MemoryDataSize = DMA_MemoryDataSize_Word;
000030  0080              LSLS     r0,r0,#2
000032  9007              STR      r0,[sp,#0x1c]
;;;489      DMA_InitStructure.DMA_Mode = DMA_Mode_Normal;
000034  2000              MOVS     r0,#0
000036  9008              STR      r0,[sp,#0x20]
;;;490      DMA_InitStructure.DMA_Priority = DMA_Priority_High;
000038  f44f5000          MOV      r0,#0x2000
00003c  9009              STR      r0,[sp,#0x24]
;;;491      DMA_InitStructure.DMA_M2M = DMA_M2M_Disable;
00003e  2000              MOVS     r0,#0
000040  900a              STR      r0,[sp,#0x28]
;;;492      DMA_Init(DMA2_Channel4, &DMA_InitStructure);
000042  4669              MOV      r1,sp
000044  4805              LDR      r0,|L4.92|
000046  f7fffffe          BL       DMA_Init
;;;493    
;;;494      /*!< DMA2 Channel4 enable */
;;;495      DMA_Cmd(DMA2_Channel4, ENABLE); 
00004a  2101              MOVS     r1,#1
00004c  4803              LDR      r0,|L4.92|
00004e  f7fffffe          BL       DMA_Cmd
;;;496    }
000052  b00b              ADD      sp,sp,#0x2c
000054  bd30              POP      {r4,r5,pc}
;;;497    
                          ENDP

000056  0000              DCW      0x0000
                  |L4.88|
                          DCD      0x1000f000
                  |L4.92|
                          DCD      0x40020444
                  |L4.96|
                          DCD      0x40018080

                          AREA ||i.SD_LowLevel_DMA_TxConfig||, CODE, READONLY, ALIGN=2

                  SD_LowLevel_DMA_TxConfig PROC
;;;436      */
;;;437    void SD_LowLevel_DMA_TxConfig(uint32_t *BufferSRC, uint32_t BufferSize)
000000  b530              PUSH     {r4,r5,lr}
;;;438    {
000002  b08b              SUB      sp,sp,#0x2c
000004  4605              MOV      r5,r0
000006  460c              MOV      r4,r1
;;;439    
;;;440      DMA_InitTypeDef DMA_InitStructure;
;;;441    
;;;442      DMA_ClearFlag(DMA2_FLAG_TC4 | DMA2_FLAG_TE4 | DMA2_FLAG_HT4 | DMA2_FLAG_GL4);
000008  4813              LDR      r0,|L5.88|
00000a  f7fffffe          BL       DMA_ClearFlag
;;;443    
;;;444      /*!< DMA2 Channel4 disable */
;;;445      DMA_Cmd(DMA2_Channel4, DISABLE);
00000e  2100              MOVS     r1,#0
000010  4812              LDR      r0,|L5.92|
000012  f7fffffe          BL       DMA_Cmd
;;;446    
;;;447      /*!< DMA2 Channel4 Config */
;;;448      DMA_InitStructure.DMA_PeripheralBaseAddr = (uint32_t)SDIO_FIFO_ADDRESS;
000016  4812              LDR      r0,|L5.96|
000018  9000              STR      r0,[sp,#0]
;;;449      DMA_InitStructure.DMA_MemoryBaseAddr = (uint32_t)BufferSRC;
00001a  9501              STR      r5,[sp,#4]
;;;450      DMA_InitStructure.DMA_DIR = DMA_DIR_PeripheralDST;
00001c  2010              MOVS     r0,#0x10
00001e  9002              STR      r0,[sp,#8]
;;;451      DMA_InitStructure.DMA_BufferSize = BufferSize / 4;
000020  08a0              LSRS     r0,r4,#2
000022  9003              STR      r0,[sp,#0xc]
;;;452      DMA_InitStructure.DMA_PeripheralInc = DMA_PeripheralInc_Disable;
000024  2000              MOVS     r0,#0
000026  9004              STR      r0,[sp,#0x10]
;;;453      DMA_InitStructure.DMA_MemoryInc = DMA_MemoryInc_Enable;
000028  2080              MOVS     r0,#0x80
00002a  9005              STR      r0,[sp,#0x14]
;;;454      DMA_InitStructure.DMA_PeripheralDataSize = DMA_PeripheralDataSize_Word;
00002c  0080              LSLS     r0,r0,#2
00002e  9006              STR      r0,[sp,#0x18]
;;;455      DMA_InitStructure.DMA_MemoryDataSize = DMA_MemoryDataSize_Word;
000030  0080              LSLS     r0,r0,#2
000032  9007              STR      r0,[sp,#0x1c]
;;;456      DMA_InitStructure.DMA_Mode = DMA_Mode_Normal;
000034  2000              MOVS     r0,#0
000036  9008              STR      r0,[sp,#0x20]
;;;457      DMA_InitStructure.DMA_Priority = DMA_Priority_High;
000038  f44f5000          MOV      r0,#0x2000
00003c  9009              STR      r0,[sp,#0x24]
;;;458      DMA_InitStructure.DMA_M2M = DMA_M2M_Disable;
00003e  2000              MOVS     r0,#0
000040  900a              STR      r0,[sp,#0x28]
;;;459      DMA_Init(DMA2_Channel4, &DMA_InitStructure);
000042  4669              MOV      r1,sp
000044  4805              LDR      r0,|L5.92|
000046  f7fffffe          BL       DMA_Init
;;;460    
;;;461      /*!< DMA2 Channel4 enable */
;;;462      DMA_Cmd(DMA2_Channel4, ENABLE);  
00004a  2101              MOVS     r1,#1
00004c  4803              LDR      r0,|L5.92|
00004e  f7fffffe          BL       DMA_Cmd
;;;463    }
000052  b00b              ADD      sp,sp,#0x2c
000054  bd30              POP      {r4,r5,pc}
;;;464    
                          ENDP

000056  0000              DCW      0x0000
                  |L5.88|
                          DCD      0x1000f000
                  |L5.92|
                          DCD      0x40020444
                  |L5.96|
                          DCD      0x40018080

                          AREA ||i.SD_LowLevel_DeInit||, CODE, READONLY, ALIGN=2

                  SD_LowLevel_DeInit PROC
;;;369      */
;;;370    void SD_LowLevel_DeInit(void)
000000  b508              PUSH     {r3,lr}
;;;371    {
;;;372      GPIO_InitTypeDef  GPIO_InitStructure;
;;;373      
;;;374      /*!< Disable SDIO Clock */
;;;375      SDIO_ClockCmd(DISABLE);
000002  2000              MOVS     r0,#0
000004  f7fffffe          BL       SDIO_ClockCmd
;;;376      
;;;377      /*!< Set Power State to OFF */
;;;378      SDIO_SetPowerState(SDIO_PowerState_OFF);
000008  2000              MOVS     r0,#0
00000a  f7fffffe          BL       SDIO_SetPowerState
;;;379    
;;;380      /*!< DeInitializes the SDIO peripheral */
;;;381      SDIO_DeInit();
00000e  f7fffffe          BL       SDIO_DeInit
;;;382      
;;;383      /*!< Disable the SDIO AHB Clock */
;;;384      RCC_AHBPeriphClockCmd(RCC_AHBPeriph_SDIO, DISABLE);
000012  2100              MOVS     r1,#0
000014  f44f6080          MOV      r0,#0x400
000018  f7fffffe          BL       RCC_AHBPeriphClockCmd
;;;385    
;;;386      /*!< Configure PC.08, PC.09, PC.10, PC.11, PC.12 pin: D0, D1, D2, D3, CLK pin */
;;;387      GPIO_InitStructure.GPIO_Pin = GPIO_Pin_8 | GPIO_Pin_9 | GPIO_Pin_10 | GPIO_Pin_11 | GPIO_Pin_12;
00001c  f44f50f8          MOV      r0,#0x1f00
000020  f8ad0000          STRH     r0,[sp,#0]
;;;388      GPIO_InitStructure.GPIO_Mode = GPIO_Mode_IN_FLOATING;
000024  2004              MOVS     r0,#4
000026  f88d0003          STRB     r0,[sp,#3]
;;;389      GPIO_Init(GPIOC, &GPIO_InitStructure);
00002a  4669              MOV      r1,sp
00002c  4805              LDR      r0,|L6.68|
00002e  f7fffffe          BL       GPIO_Init
;;;390    
;;;391      /*!< Configure PD.02 CMD line */
;;;392      GPIO_InitStructure.GPIO_Pin = GPIO_Pin_2;
000032  2004              MOVS     r0,#4
000034  f8ad0000          STRH     r0,[sp,#0]
;;;393      GPIO_Init(GPIOD, &GPIO_InitStructure);
000038  4669              MOV      r1,sp
00003a  4803              LDR      r0,|L6.72|
00003c  f7fffffe          BL       GPIO_Init
;;;394    }
000040  bd08              POP      {r3,pc}
;;;395    
                          ENDP

000042  0000              DCW      0x0000
                  |L6.68|
                          DCD      0x40011000
                  |L6.72|
                          DCD      0x40011400

                          AREA ||i.SD_LowLevel_Init||, CODE, READONLY, ALIGN=2

                  SD_LowLevel_Init PROC
;;;401      */
;;;402    void SD_LowLevel_Init(void)
000000  b508              PUSH     {r3,lr}
;;;403    {
;;;404      GPIO_InitTypeDef  GPIO_InitStructure;
;;;405    
;;;406      /*!< GPIOC and GPIOD Periph clock enable */
;;;407      RCC_APB2PeriphClockCmd(RCC_APB2Periph_GPIOC | RCC_APB2Periph_GPIOD | SD_DETECT_GPIO_CLK, ENABLE);
000002  2101              MOVS     r1,#1
000004  20b0              MOVS     r0,#0xb0
000006  f7fffffe          BL       RCC_APB2PeriphClockCmd
;;;408    
;;;409      /*!< Configure PC.08, PC.09, PC.10, PC.11, PC.12 pin: D0, D1, D2, D3, CLK pin */
;;;410      GPIO_InitStructure.GPIO_Pin = GPIO_Pin_8 | GPIO_Pin_9 | GPIO_Pin_10 | GPIO_Pin_11 | GPIO_Pin_12;
00000a  f44f50f8          MOV      r0,#0x1f00
00000e  f8ad0000          STRH     r0,[sp,#0]
;;;411      GPIO_InitStructure.GPIO_Speed = GPIO_Speed_50MHz;
000012  2003              MOVS     r0,#3
000014  f88d0002          STRB     r0,[sp,#2]
;;;412      GPIO_InitStructure.GPIO_Mode = GPIO_Mode_AF_PP;
000018  2018              MOVS     r0,#0x18
00001a  f88d0003          STRB     r0,[sp,#3]
;;;413      GPIO_Init(GPIOC, &GPIO_InitStructure);
00001e  4669              MOV      r1,sp
000020  480e              LDR      r0,|L7.92|
000022  f7fffffe          BL       GPIO_Init
;;;414    
;;;415      /*!< Configure PD.02 CMD line */
;;;416      GPIO_InitStructure.GPIO_Pin = GPIO_Pin_2;
000026  2004              MOVS     r0,#4
000028  f8ad0000          STRH     r0,[sp,#0]
;;;417      GPIO_Init(GPIOD, &GPIO_InitStructure);
00002c  4669              MOV      r1,sp
00002e  480c              LDR      r0,|L7.96|
000030  f7fffffe          BL       GPIO_Init
;;;418    
;;;419      /*!< Configure SD_SPI_DETECT_PIN pin: SD Card detect pin */
;;;420      GPIO_InitStructure.GPIO_Pin = SD_DETECT_PIN;
000034  f44f6000          MOV      r0,#0x800
000038  f8ad0000          STRH     r0,[sp,#0]
;;;421      GPIO_InitStructure.GPIO_Mode = GPIO_Mode_IPU;
00003c  2048              MOVS     r0,#0x48
00003e  f88d0003          STRB     r0,[sp,#3]
;;;422      GPIO_Init(SD_DETECT_GPIO_PORT, &GPIO_InitStructure);
000042  4669              MOV      r1,sp
000044  4807              LDR      r0,|L7.100|
000046  f7fffffe          BL       GPIO_Init
;;;423      
;;;424      /*!< Enable the SDIO AHB Clock */
;;;425      RCC_AHBPeriphClockCmd(RCC_AHBPeriph_SDIO, ENABLE);
00004a  2101              MOVS     r1,#1
00004c  0288              LSLS     r0,r1,#10
00004e  f7fffffe          BL       RCC_AHBPeriphClockCmd
;;;426    
;;;427      /*!< Enable the DMA2 Clock */
;;;428      RCC_AHBPeriphClockCmd(RCC_AHBPeriph_DMA2, ENABLE);
000052  2101              MOVS     r1,#1
000054  2002              MOVS     r0,#2
000056  f7fffffe          BL       RCC_AHBPeriphClockCmd
;;;429    }
00005a  bd08              POP      {r3,pc}
;;;430    
                          ENDP

                  |L7.92|
                          DCD      0x40011000
                  |L7.96|
                          DCD      0x40011400
                  |L7.100|
                          DCD      0x40011c00

                          AREA ||i.STM_EVAL_COMInit||, CODE, READONLY, ALIGN=2

                  STM_EVAL_COMInit PROC
;;;329      */
;;;330    void STM_EVAL_COMInit(COM_TypeDef COM, USART_InitTypeDef* USART_InitStruct)
000000  b538              PUSH     {r3-r5,lr}
;;;331    {
000002  4604              MOV      r4,r0
000004  460d              MOV      r5,r1
;;;332      GPIO_InitTypeDef GPIO_InitStructure;
;;;333    
;;;334      /* Enable GPIO clock */
;;;335      RCC_APB2PeriphClockCmd(COM_TX_PORT_CLK[COM] | COM_RX_PORT_CLK[COM] | RCC_APB2Periph_AFIO, ENABLE);
000006  4923              LDR      r1,|L8.148|
000008  f8511024          LDR      r1,[r1,r4,LSL #2]
00000c  4a22              LDR      r2,|L8.152|
00000e  f8522024          LDR      r2,[r2,r4,LSL #2]
000012  4311              ORRS     r1,r1,r2
000014  f0410001          ORR      r0,r1,#1
000018  2101              MOVS     r1,#1
00001a  f7fffffe          BL       RCC_APB2PeriphClockCmd
;;;336    
;;;337      /* Enable UART clock */
;;;338      if (COM == COM1)
00001e  b934              CBNZ     r4,|L8.46|
;;;339      {
;;;340        RCC_APB2PeriphClockCmd(COM_USART_CLK[COM], ENABLE); 
000020  491e              LDR      r1,|L8.156|
000022  f8510024          LDR      r0,[r1,r4,LSL #2]
000026  2101              MOVS     r1,#1
000028  f7fffffe          BL       RCC_APB2PeriphClockCmd
00002c  e005              B        |L8.58|
                  |L8.46|
;;;341      }
;;;342      else
;;;343      {
;;;344        RCC_APB1PeriphClockCmd(COM_USART_CLK[COM], ENABLE);
00002e  491b              LDR      r1,|L8.156|
000030  f8510024          LDR      r0,[r1,r4,LSL #2]
000034  2101              MOVS     r1,#1
000036  f7fffffe          BL       RCC_APB1PeriphClockCmd
                  |L8.58|
;;;345      }
;;;346    
;;;347      /* Configure USART Tx as alternate function push-pull */
;;;348      GPIO_InitStructure.GPIO_Mode = GPIO_Mode_AF_PP;
00003a  2018              MOVS     r0,#0x18
00003c  f88d0003          STRB     r0,[sp,#3]
;;;349      GPIO_InitStructure.GPIO_Pin = COM_TX_PIN[COM];
000040  4817              LDR      r0,|L8.160|
000042  f8300014          LDRH     r0,[r0,r4,LSL #1]
000046  f8ad0000          STRH     r0,[sp,#0]
;;;350      GPIO_InitStructure.GPIO_Speed = GPIO_Speed_50MHz;
00004a  2003              MOVS     r0,#3
00004c  f88d0002          STRB     r0,[sp,#2]
;;;351      GPIO_Init(COM_TX_PORT[COM], &GPIO_InitStructure);
000050  4914              LDR      r1,|L8.164|
000052  f8510024          LDR      r0,[r1,r4,LSL #2]
000056  4669              MOV      r1,sp
000058  f7fffffe          BL       GPIO_Init
;;;352    
;;;353      /* Configure USART Rx as input floating */
;;;354      GPIO_InitStructure.GPIO_Mode = GPIO_Mode_IN_FLOATING;
00005c  2004              MOVS     r0,#4
00005e  f88d0003          STRB     r0,[sp,#3]
;;;355      GPIO_InitStructure.GPIO_Pin = COM_RX_PIN[COM];
000062  4811              LDR      r0,|L8.168|
000064  f8300014          LDRH     r0,[r0,r4,LSL #1]
000068  f8ad0000          STRH     r0,[sp,#0]
;;;356      GPIO_Init(COM_RX_PORT[COM], &GPIO_InitStructure);
00006c  490f              LDR      r1,|L8.172|
00006e  f8510024          LDR      r0,[r1,r4,LSL #2]
000072  4669              MOV      r1,sp
000074  f7fffffe          BL       GPIO_Init
;;;357    
;;;358      /* USART configuration */
;;;359      USART_Init(COM_USART[COM], USART_InitStruct);
000078  490d              LDR      r1,|L8.176|
00007a  f8510024          LDR      r0,[r1,r4,LSL #2]
00007e  4629              MOV      r1,r5
000080  f7fffffe          BL       USART_Init
;;;360        
;;;361      /* Enable USART */
;;;362      USART_Cmd(COM_USART[COM], ENABLE);
000084  490a              LDR      r1,|L8.176|
000086  f8510024          LDR      r0,[r1,r4,LSL #2]
00008a  2101              MOVS     r1,#1
00008c  f7fffffe          BL       USART_Cmd
;;;363    }
000090  bd38              POP      {r3-r5,pc}
;;;364    
                          ENDP

000092  0000              DCW      0x0000
                  |L8.148|
                          DCD      COM_TX_PORT_CLK
                  |L8.152|
                          DCD      COM_RX_PORT_CLK
                  |L8.156|
                          DCD      COM_USART_CLK
                  |L8.160|
                          DCD      COM_TX_PIN
                  |L8.164|
                          DCD      COM_TX_PORT
                  |L8.168|
                          DCD      COM_RX_PIN
                  |L8.172|
                          DCD      COM_RX_PORT
                  |L8.176|
                          DCD      COM_USART

                          AREA ||i.STM_EVAL_LEDInit||, CODE, READONLY, ALIGN=2

                  STM_EVAL_LEDInit PROC
;;;176      */
;;;177    void STM_EVAL_LEDInit(Led_TypeDef Led)
000000  b538              PUSH     {r3-r5,lr}
;;;178    {
000002  4604              MOV      r4,r0
;;;179      GPIO_InitTypeDef  GPIO_InitStructure;
;;;180      
;;;181      /* Enable the GPIO_LED Clock */
;;;182      RCC_APB2PeriphClockCmd(GPIO_CLK[Led], ENABLE);
000004  490b              LDR      r1,|L9.52|
000006  f8510024          LDR      r0,[r1,r4,LSL #2]
00000a  2101              MOVS     r1,#1
00000c  f7fffffe          BL       RCC_APB2PeriphClockCmd
;;;183    
;;;184      /* Configure the GPIO_LED pin */
;;;185      GPIO_InitStructure.GPIO_Pin = GPIO_PIN[Led];
000010  4809              LDR      r0,|L9.56|
000012  f8300014          LDRH     r0,[r0,r4,LSL #1]
000016  f8ad0000          STRH     r0,[sp,#0]
;;;186      GPIO_InitStructure.GPIO_Mode = GPIO_Mode_Out_PP;
00001a  2010              MOVS     r0,#0x10
00001c  f88d0003          STRB     r0,[sp,#3]
;;;187      GPIO_InitStructure.GPIO_Speed = GPIO_Speed_50MHz;
000020  2003              MOVS     r0,#3
000022  f88d0002          STRB     r0,[sp,#2]
;;;188    
;;;189      GPIO_Init(GPIO_PORT[Led], &GPIO_InitStructure);
000026  4905              LDR      r1,|L9.60|
000028  f8510024          LDR      r0,[r1,r4,LSL #2]
00002c  4669              MOV      r1,sp
00002e  f7fffffe          BL       GPIO_Init
;;;190    }
000032  bd38              POP      {r3-r5,pc}
;;;191    
                          ENDP

                  |L9.52|
                          DCD      GPIO_CLK
                  |L9.56|
                          DCD      GPIO_PIN
                  |L9.60|
                          DCD      GPIO_PORT

                          AREA ||i.STM_EVAL_LEDOff||, CODE, READONLY, ALIGN=2

                  STM_EVAL_LEDOff PROC
;;;216      */
;;;217    void STM_EVAL_LEDOff(Led_TypeDef Led)
000000  4903              LDR      r1,|L10.16|
;;;218    {
;;;219      GPIO_PORT[Led]->BRR = GPIO_PIN[Led];    
000002  f8311010          LDRH     r1,[r1,r0,LSL #1]
000006  4a03              LDR      r2,|L10.20|
000008  f8522020          LDR      r2,[r2,r0,LSL #2]
00000c  6151              STR      r1,[r2,#0x14]
;;;220    }
00000e  4770              BX       lr
;;;221    
                          ENDP

                  |L10.16|
                          DCD      GPIO_PIN
                  |L10.20|
                          DCD      GPIO_PORT

                          AREA ||i.STM_EVAL_LEDOn||, CODE, READONLY, ALIGN=2

                  STM_EVAL_LEDOn PROC
;;;201      */
;;;202    void STM_EVAL_LEDOn(Led_TypeDef Led)
000000  4903              LDR      r1,|L11.16|
;;;203    {
;;;204      GPIO_PORT[Led]->BSRR = GPIO_PIN[Led];     
000002  f8311010          LDRH     r1,[r1,r0,LSL #1]
000006  4a03              LDR      r2,|L11.20|
000008  f8522020          LDR      r2,[r2,r0,LSL #2]
00000c  6111              STR      r1,[r2,#0x10]
;;;205    }
00000e  4770              BX       lr
;;;206    
                          ENDP

                  |L11.16|
                          DCD      GPIO_PIN
                  |L11.20|
                          DCD      GPIO_PORT

                          AREA ||i.STM_EVAL_LEDToggle||, CODE, READONLY, ALIGN=2

                  STM_EVAL_LEDToggle PROC
;;;231      */
;;;232    void STM_EVAL_LEDToggle(Led_TypeDef Led)
000000  4906              LDR      r1,|L12.28|
;;;233    {
;;;234      GPIO_PORT[Led]->ODR ^= GPIO_PIN[Led];
000002  f8511020          LDR      r1,[r1,r0,LSL #2]
000006  68c9              LDR      r1,[r1,#0xc]
000008  4a05              LDR      r2,|L12.32|
00000a  f8322010          LDRH     r2,[r2,r0,LSL #1]
00000e  4051              EORS     r1,r1,r2
000010  4a02              LDR      r2,|L12.28|
000012  f8522020          LDR      r2,[r2,r0,LSL #2]
000016  60d1              STR      r1,[r2,#0xc]
;;;235    }
000018  4770              BX       lr
;;;236    
                          ENDP

00001a  0000              DCW      0x0000
                  |L12.28|
                          DCD      GPIO_PORT
                  |L12.32|
                          DCD      GPIO_PIN

                          AREA ||i.STM_EVAL_PBGetState||, CODE, READONLY, ALIGN=2

                  STM_EVAL_PBGetState PROC
;;;314      */
;;;315    uint32_t STM_EVAL_PBGetState(Button_TypeDef Button)
000000  b510              PUSH     {r4,lr}
;;;316    {
000002  4604              MOV      r4,r0
;;;317      return GPIO_ReadInputDataBit(BUTTON_PORT[Button], BUTTON_PIN[Button]);
000004  4a04              LDR      r2,|L13.24|
000006  f8321014          LDRH     r1,[r2,r4,LSL #1]
00000a  4a04              LDR      r2,|L13.28|
00000c  f8520024          LDR      r0,[r2,r4,LSL #2]
000010  f7fffffe          BL       GPIO_ReadInputDataBit
;;;318    }
000014  bd10              POP      {r4,pc}
;;;319    
                          ENDP

000016  0000              DCW      0x0000
                  |L13.24|
                          DCD      BUTTON_PIN
                  |L13.28|
                          DCD      BUTTON_PORT

                          AREA ||i.STM_EVAL_PBInit||, CODE, READONLY, ALIGN=2

                  STM_EVAL_PBInit PROC
;;;255      */
;;;256    void STM_EVAL_PBInit(Button_TypeDef Button, ButtonMode_TypeDef Button_Mode)
000000  b57f              PUSH     {r0-r6,lr}
;;;257    {
000002  4604              MOV      r4,r0
000004  460d              MOV      r5,r1
;;;258      GPIO_InitTypeDef GPIO_InitStructure;
;;;259      EXTI_InitTypeDef EXTI_InitStructure;
;;;260      NVIC_InitTypeDef NVIC_InitStructure;
;;;261    
;;;262      /* Enable the BUTTON Clock */
;;;263      RCC_APB2PeriphClockCmd(BUTTON_CLK[Button] | RCC_APB2Periph_AFIO, ENABLE);
000006  4923              LDR      r1,|L14.148|
000008  f8511024          LDR      r1,[r1,r4,LSL #2]
00000c  f0410001          ORR      r0,r1,#1
000010  2101              MOVS     r1,#1
000012  f7fffffe          BL       RCC_APB2PeriphClockCmd
;;;264    
;;;265      /* Configure Button pin as input floating */
;;;266      GPIO_InitStructure.GPIO_Mode = GPIO_Mode_IN_FLOATING;
000016  2004              MOVS     r0,#4
000018  f88d000f          STRB     r0,[sp,#0xf]
;;;267      GPIO_InitStructure.GPIO_Pin = BUTTON_PIN[Button];
00001c  481e              LDR      r0,|L14.152|
00001e  f8300014          LDRH     r0,[r0,r4,LSL #1]
000022  f8ad000c          STRH     r0,[sp,#0xc]
;;;268      GPIO_Init(BUTTON_PORT[Button], &GPIO_InitStructure);
000026  491d              LDR      r1,|L14.156|
000028  f8510024          LDR      r0,[r1,r4,LSL #2]
00002c  a903              ADD      r1,sp,#0xc
00002e  f7fffffe          BL       GPIO_Init
;;;269    
;;;270    
;;;271      if (Button_Mode == BUTTON_MODE_EXTI)
000032  2d01              CMP      r5,#1
000034  d12c              BNE      |L14.144|
;;;272      {
;;;273        /* Connect Button EXTI Line to Button GPIO Pin */
;;;274        GPIO_EXTILineConfig(BUTTON_PORT_SOURCE[Button], BUTTON_PIN_SOURCE[Button]);
000036  4a1a              LDR      r2,|L14.160|
000038  f8121014          LDRB     r1,[r2,r4,LSL #1]
00003c  4a19              LDR      r2,|L14.164|
00003e  f8120014          LDRB     r0,[r2,r4,LSL #1]
000042  f7fffffe          BL       GPIO_EXTILineConfig
;;;275    
;;;276        /* Configure Button EXTI line */
;;;277        EXTI_InitStructure.EXTI_Line = BUTTON_EXTI_LINE[Button];
000046  4818              LDR      r0,|L14.168|
000048  f8300014          LDRH     r0,[r0,r4,LSL #1]
00004c  9001              STR      r0,[sp,#4]
;;;278        EXTI_InitStructure.EXTI_Mode = EXTI_Mode_Interrupt;
00004e  2000              MOVS     r0,#0
000050  f88d0008          STRB     r0,[sp,#8]
;;;279    
;;;280        if(Button != BUTTON_WAKEUP)
000054  b11c              CBZ      r4,|L14.94|
;;;281        {
;;;282          EXTI_InitStructure.EXTI_Trigger = EXTI_Trigger_Falling;  
000056  200c              MOVS     r0,#0xc
000058  f88d0009          STRB     r0,[sp,#9]
00005c  e002              B        |L14.100|
                  |L14.94|
;;;283        }
;;;284        else
;;;285        {
;;;286          EXTI_InitStructure.EXTI_Trigger = EXTI_Trigger_Rising;  
00005e  2008              MOVS     r0,#8
000060  f88d0009          STRB     r0,[sp,#9]
                  |L14.100|
;;;287        }
;;;288        EXTI_InitStructure.EXTI_LineCmd = ENABLE;
000064  2001              MOVS     r0,#1
000066  f88d000a          STRB     r0,[sp,#0xa]
;;;289        EXTI_Init(&EXTI_InitStructure);
00006a  a801              ADD      r0,sp,#4
00006c  f7fffffe          BL       EXTI_Init
;;;290    
;;;291        /* Enable and set Button EXTI Interrupt to the lowest priority */
;;;292        NVIC_InitStructure.NVIC_IRQChannel = BUTTON_IRQn[Button];
000070  480e              LDR      r0,|L14.172|
000072  f8100014          LDRB     r0,[r0,r4,LSL #1]
000076  f88d0000          STRB     r0,[sp,#0]
;;;293        NVIC_InitStructure.NVIC_IRQChannelPreemptionPriority = 0x0F;
00007a  200f              MOVS     r0,#0xf
00007c  f88d0001          STRB     r0,[sp,#1]
;;;294        NVIC_InitStructure.NVIC_IRQChannelSubPriority = 0x0F;
000080  f88d0002          STRB     r0,[sp,#2]
;;;295        NVIC_InitStructure.NVIC_IRQChannelCmd = ENABLE;
000084  2001              MOVS     r0,#1
000086  f88d0003          STRB     r0,[sp,#3]
;;;296    
;;;297        NVIC_Init(&NVIC_InitStructure); 
00008a  4668              MOV      r0,sp
00008c  f7fffffe          BL       NVIC_Init
                  |L14.144|
;;;298      }
;;;299    }
000090  bd7f              POP      {r0-r6,pc}
;;;300    
                          ENDP

000092  0000              DCW      0x0000
                  |L14.148|
                          DCD      BUTTON_CLK
                  |L14.152|
                          DCD      BUTTON_PIN
                  |L14.156|
                          DCD      BUTTON_PORT
                  |L14.160|
                          DCD      BUTTON_PIN_SOURCE
                  |L14.164|
                          DCD      BUTTON_PORT_SOURCE
                  |L14.168|
                          DCD      BUTTON_EXTI_LINE
                  |L14.172|
                          DCD      BUTTON_IRQn

                          AREA ||i.sFLASH_LowLevel_DeInit||, CODE, READONLY, ALIGN=2

                  sFLASH_LowLevel_DeInit PROC
;;;512      */
;;;513    void sFLASH_LowLevel_DeInit(void)
000000  b508              PUSH     {r3,lr}
;;;514    {
;;;515      GPIO_InitTypeDef GPIO_InitStructure;
;;;516    
;;;517      /*!< Disable the sFLASH_SPI  */
;;;518      SPI_Cmd(sFLASH_SPI, DISABLE);
000002  2100              MOVS     r1,#0
000004  4815              LDR      r0,|L15.92|
000006  f7fffffe          BL       SPI_Cmd
;;;519      
;;;520      /*!< DeInitializes the sFLASH_SPI */
;;;521      SPI_I2S_DeInit(sFLASH_SPI);
00000a  4814              LDR      r0,|L15.92|
00000c  f7fffffe          BL       SPI_I2S_DeInit
;;;522      
;;;523      /*!< sFLASH_SPI Periph clock disable */
;;;524      RCC_APB2PeriphClockCmd(sFLASH_SPI_CLK, DISABLE);
000010  2100              MOVS     r1,#0
000012  f44f5080          MOV      r0,#0x1000
000016  f7fffffe          BL       RCC_APB2PeriphClockCmd
;;;525      
;;;526      /*!< Configure sFLASH_SPI pins: SCK */
;;;527      GPIO_InitStructure.GPIO_Pin = sFLASH_SPI_SCK_PIN;
00001a  2020              MOVS     r0,#0x20
00001c  f8ad0000          STRH     r0,[sp,#0]
;;;528      GPIO_InitStructure.GPIO_Mode = GPIO_Mode_IN_FLOATING;
000020  2004              MOVS     r0,#4
000022  f88d0003          STRB     r0,[sp,#3]
;;;529      GPIO_Init(sFLASH_SPI_SCK_GPIO_PORT, &GPIO_InitStructure);
000026  4669              MOV      r1,sp
000028  480d              LDR      r0,|L15.96|
00002a  f7fffffe          BL       GPIO_Init
;;;530    
;;;531      /*!< Configure sFLASH_SPI pins: MISO */
;;;532      GPIO_InitStructure.GPIO_Pin = sFLASH_SPI_MISO_PIN;
00002e  2040              MOVS     r0,#0x40
000030  f8ad0000          STRH     r0,[sp,#0]
;;;533      GPIO_Init(sFLASH_SPI_MISO_GPIO_PORT, &GPIO_InitStructure);
000034  4669              MOV      r1,sp
000036  480a              LDR      r0,|L15.96|
000038  f7fffffe          BL       GPIO_Init
;;;534    
;;;535      /*!< Configure sFLASH_SPI pins: MOSI */
;;;536      GPIO_InitStructure.GPIO_Pin = sFLASH_SPI_MOSI_PIN;
00003c  2080              MOVS     r0,#0x80
00003e  f8ad0000          STRH     r0,[sp,#0]
;;;537      GPIO_Init(sFLASH_SPI_MOSI_GPIO_PORT, &GPIO_InitStructure);
000042  4669              MOV      r1,sp
000044  4806              LDR      r0,|L15.96|
000046  f7fffffe          BL       GPIO_Init
;;;538    
;;;539      /*!< Configure sFLASH_CS_PIN pin: sFLASH Card CS pin */
;;;540      GPIO_InitStructure.GPIO_Pin = sFLASH_CS_PIN;
00004a  2004              MOVS     r0,#4
00004c  f8ad0000          STRH     r0,[sp,#0]
;;;541      GPIO_Init(sFLASH_CS_GPIO_PORT, &GPIO_InitStructure);
000050  4669              MOV      r1,sp
000052  4804              LDR      r0,|L15.100|
000054  f7fffffe          BL       GPIO_Init
;;;542    }
000058  bd08              POP      {r3,pc}
;;;543    
                          ENDP

00005a  0000              DCW      0x0000
                  |L15.92|
                          DCD      0x40013000
                  |L15.96|
                          DCD      0x40010800
                  |L15.100|
                          DCD      0x40010c00

                          AREA ||i.sFLASH_LowLevel_Init||, CODE, READONLY, ALIGN=2

                  sFLASH_LowLevel_Init PROC
;;;548      */
;;;549    void sFLASH_LowLevel_Init(void)
000000  b508              PUSH     {r3,lr}
;;;550    {
;;;551      GPIO_InitTypeDef GPIO_InitStructure;
;;;552    
;;;553      /*!< sFLASH_SPI_CS_GPIO, sFLASH_SPI_MOSI_GPIO, sFLASH_SPI_MISO_GPIO 
;;;554           and sFLASH_SPI_SCK_GPIO Periph clock enable */
;;;555      RCC_APB2PeriphClockCmd(sFLASH_CS_GPIO_CLK | sFLASH_SPI_MOSI_GPIO_CLK | sFLASH_SPI_MISO_GPIO_CLK |
000002  2101              MOVS     r1,#1
000004  200c              MOVS     r0,#0xc
000006  f7fffffe          BL       RCC_APB2PeriphClockCmd
;;;556                             sFLASH_SPI_SCK_GPIO_CLK, ENABLE);
;;;557    
;;;558      /*!< sFLASH_SPI Periph clock enable */
;;;559      RCC_APB2PeriphClockCmd(sFLASH_SPI_CLK, ENABLE);
00000a  2101              MOVS     r1,#1
00000c  0308              LSLS     r0,r1,#12
00000e  f7fffffe          BL       RCC_APB2PeriphClockCmd
;;;560      
;;;561      /*!< Configure sFLASH_SPI pins: SCK */
;;;562      GPIO_InitStructure.GPIO_Pin = sFLASH_SPI_SCK_PIN;
000012  2020              MOVS     r0,#0x20
000014  f8ad0000          STRH     r0,[sp,#0]
;;;563      GPIO_InitStructure.GPIO_Speed = GPIO_Speed_50MHz;
000018  2003              MOVS     r0,#3
00001a  f88d0002          STRB     r0,[sp,#2]
;;;564      GPIO_InitStructure.GPIO_Mode = GPIO_Mode_AF_PP;
00001e  2018              MOVS     r0,#0x18
000020  f88d0003          STRB     r0,[sp,#3]
;;;565      GPIO_Init(sFLASH_SPI_SCK_GPIO_PORT, &GPIO_InitStructure);
000024  4669              MOV      r1,sp
000026  480f              LDR      r0,|L16.100|
000028  f7fffffe          BL       GPIO_Init
;;;566    
;;;567      /*!< Configure sFLASH_SPI pins: MOSI */
;;;568      GPIO_InitStructure.GPIO_Pin = sFLASH_SPI_MOSI_PIN;
00002c  2080              MOVS     r0,#0x80
00002e  f8ad0000          STRH     r0,[sp,#0]
;;;569      GPIO_Init(sFLASH_SPI_MOSI_GPIO_PORT, &GPIO_InitStructure);
000032  4669              MOV      r1,sp
000034  480b              LDR      r0,|L16.100|
000036  f7fffffe          BL       GPIO_Init
;;;570    
;;;571      /*!< Configure sFLASH_SPI pins: MISO */
;;;572      GPIO_InitStructure.GPIO_Pin = sFLASH_SPI_MISO_PIN;
00003a  2040              MOVS     r0,#0x40
00003c  f8ad0000          STRH     r0,[sp,#0]
;;;573      GPIO_InitStructure.GPIO_Mode = GPIO_Mode_IN_FLOATING;  
000040  2004              MOVS     r0,#4
000042  f88d0003          STRB     r0,[sp,#3]
;;;574      GPIO_Init(sFLASH_SPI_MISO_GPIO_PORT, &GPIO_InitStructure);
000046  4669              MOV      r1,sp
000048  4806              LDR      r0,|L16.100|
00004a  f7fffffe          BL       GPIO_Init
;;;575      
;;;576      /*!< Configure sFLASH_CS_PIN pin: sFLASH Card CS pin */
;;;577      GPIO_InitStructure.GPIO_Pin = sFLASH_CS_PIN;
00004e  2004              MOVS     r0,#4
000050  f8ad0000          STRH     r0,[sp,#0]
;;;578      GPIO_InitStructure.GPIO_Mode = GPIO_Mode_Out_PP;
000054  2010              MOVS     r0,#0x10
000056  f88d0003          STRB     r0,[sp,#3]
;;;579      GPIO_Init(sFLASH_CS_GPIO_PORT, &GPIO_InitStructure);
00005a  4669              MOV      r1,sp
00005c  4802              LDR      r0,|L16.104|
00005e  f7fffffe          BL       GPIO_Init
;;;580    }
000062  bd08              POP      {r3,pc}
;;;581    
                          ENDP

                  |L16.100|
                          DCD      0x40010800
                  |L16.104|
                          DCD      0x40010c00

                          AREA ||.constdata||, DATA, READONLY, ALIGN=2

                  GPIO_PIN
000000  00400080          DCW      0x0040,0x0080
000004  01000200          DCW      0x0100,0x0200
                  GPIO_CLK
                          DCD      0x00000080
                          DCD      0x00000080
                          DCD      0x00000080
                          DCD      0x00000080
                  BUTTON_PIN
000018  00012000          DCW      0x0001,0x2000
00001c  01002000          DCW      0x0100,0x2000
000020  40008000          DCW      0x4000,0x8000
000024  00080080          DCW      0x0008,0x0080
                  BUTTON_CLK
                          DCD      0x00000004
                          DCD      0x00000010
                          DCD      0x00000100
                          DCD      0x00000100
                          DCD      0x00000100
                          DCD      0x00000100
                          DCD      0x00000020
                          DCD      0x00000100
                  BUTTON_EXTI_LINE
000048  00012000          DCW      0x0001,0x2000
00004c  01002000          DCW      0x0100,0x2000
000050  40008000          DCW      0x4000,0x8000
000054  00080080          DCW      0x0008,0x0080
                  BUTTON_PORT_SOURCE
000058  00000002          DCW      0x0000,0x0002
00005c  00060006          DCW      0x0006,0x0006
000060  00060006          DCW      0x0006,0x0006
000064  00030006          DCW      0x0003,0x0006
                  BUTTON_PIN_SOURCE
000068  0000000d          DCW      0x0000,0x000d
00006c  0008000d          DCW      0x0008,0x000d
000070  000e000f          DCW      0x000e,0x000f
000074  00030007          DCW      0x0003,0x0007
                  BUTTON_IRQn
000078  00060028          DCW      0x0006,0x0028
00007c  00170028          DCW      0x0017,0x0028
000080  00280028          DCW      0x0028,0x0028
000084  00090017          DCW      0x0009,0x0017
                  COM_USART_CLK
                          DCD      0x00004000
                          DCD      0x00020000
                  COM_TX_PORT_CLK
                          DCD      0x00000004
                          DCD      0x00000004
                  COM_RX_PORT_CLK
                          DCD      0x00000004
                          DCD      0x00000004
                  COM_TX_PIN
0000a0  02000004          DCW      0x0200,0x0004
                  COM_RX_PIN
0000a4  04000008          DCW      0x0400,0x0008

                          AREA ||.data||, DATA, ALIGN=2

                  GPIO_PORT
                          DCD      0x40011c00
                          DCD      0x40011c00
                          DCD      0x40011c00
                          DCD      0x40011c00
                  BUTTON_PORT
                          DCD      0x40010800
                          DCD      0x40011000
                          DCD      0x40012000
                          DCD      0x40012000
                          DCD      0x40012000
                          DCD      0x40012000
                          DCD      0x40011400
                          DCD      0x40012000
                  COM_USART
                          DCD      0x40013800
                          DCD      0x40004400
                  COM_TX_PORT
                          DCD      0x40010800
                          DCD      0x40010800
                  COM_RX_PORT
                          DCD      0x40010800
                          DCD      0x40010800
